target datalayout = "e-m:e-p270:32:32-p271:32:32-p272:64:64-i64:64-i128:128-f80:128-n8:16:32:64-S128"
target triple = "x86_64-unknown-linux-gnu"

%struct.redisAsyncContext = type { %struct.redisContext, i32, ptr, ptr, ptr, %struct.anon.2, ptr, ptr, ptr, %struct.redisCallbackList, ptr, i64, %struct.anon.3, ptr }
%struct.redisContext = type { ptr, i32, [128 x i8], i32, i32, ptr, ptr, i32, ptr, ptr, %struct.anon.0, %struct.anon.1, ptr, i64, ptr, ptr, ptr, ptr }
%struct.anon.0 = type { ptr, ptr, i32 }
%struct.anon.1 = type { ptr }
%struct.anon.2 = type { ptr, ptr, ptr, ptr, ptr, ptr, ptr }
%struct.redisCallbackList = type { ptr, ptr }
%struct.anon.3 = type { %struct.redisCallbackList, ptr, ptr, i32 }
%struct.redisContextFuncs = type { ptr, ptr, ptr, ptr, ptr, ptr }

; Function Attrs: nounwind uwtable
define void @redisAsyncHandleRead(ptr noundef %ac) #0 {
entry:
  %ac.addr = alloca ptr, align 8
  %c = alloca ptr, align 8
  store ptr %ac, ptr %ac.addr, align 8
  %0 = load ptr, ptr %ac.addr, align 8
  %c1 = getelementptr inbounds %struct.redisAsyncContext, ptr %0, i32 0, i32 0
  store ptr %c1, ptr %c, align 8
  %1 = load ptr, ptr %c, align 8
  %flags2 = getelementptr inbounds %struct.redisContext, ptr %1, i32 0, i32 4
  %2 = load i32, ptr %flags2, align 8
  %and3 = and i32 %2, 2
  %tobool4 = icmp ne i32 %and3, 0
  br i1 %tobool4, label %if.end11, label %if.then

if.then:                                          ; preds = %entry
  %3 = load ptr, ptr %ac.addr, align 8
  %call = call i32 @__redisAsyncHandleConnect(ptr noundef %3)
  %cmp = icmp ne i32 %call, 0
  br i1 %cmp, label %if.then5, label %if.end

if.then5:                                         ; preds = %if.then
  br label %return

if.end:                                           ; preds = %if.then
  %4 = load ptr, ptr %c, align 8
  %flags6 = getelementptr inbounds %struct.redisContext, ptr %4, i32 0, i32 4
  %5 = load i32, ptr %flags6, align 8
  %and7 = and i32 %5, 2
  %tobool8 = icmp ne i32 %and7, 0
  br i1 %tobool8, label %if.end10, label %if.then9

if.then9:                                         ; preds = %if.end
  br label %return

if.end10:                                         ; preds = %if.end
  br label %if.end11

if.end11:                                         ; preds = %if.end10, %entry
  %6 = load ptr, ptr %c, align 8
  %funcs = getelementptr inbounds %struct.redisContext, ptr %6, i32 0, i32 0
  %7 = load ptr, ptr %funcs, align 8
  %async_read = getelementptr inbounds %struct.redisContextFuncs, ptr %7, i32 0, i32 2
  %8 = load ptr, ptr %async_read, align 8
  %9 = load ptr, ptr %ac.addr, align 8
  call void %8(ptr noundef %9)
  br label %return

return:                                           ; preds = %if.end11, %if.then9, %if.then5
  ret void
}